target datalayout = "e-m:e-p270:32:32-p271:32:32-p272:64:64-i64:64-i128:128-f80:128-n8:16:32:64-S128"
target triple = "x86_64-pc-linux-gnu"

%struct.rb_data_type_struct = type { ptr, %struct.anon.4, ptr, ptr, i64 }
%struct.anon.4 = type { ptr, ptr, ptr, ptr, [1 x ptr] }
%struct.rb_addrinfo_t = type { i64, i64, i32, i32, i32, i32, %union.union_sockaddr }
%union.union_sockaddr = type { %struct.sockaddr_storage, [1920 x i8] }
%struct.sockaddr_storage = type { i16, [118 x i8], i64 }

@addrinfo_type = internal constant %struct.rb_data_type_struct { ptr @.str.102, %struct.anon.4 { ptr @addrinfo_mark, ptr inttoptr (i64 -1 to ptr), ptr @addrinfo_memsize, ptr null, [1 x ptr] zeroinitializer }, ptr null, ptr null, i64 0 }, align 8
@rb_eTypeError = external global i64, align 8
@.str.101 = private unnamed_addr constant [29 x i8] c"uninitialized socket address\00", align 1

; Function Attrs: inlinehint nounwind sspstrong uwtable
define internal ptr @check_addrinfo(i64 noundef %0) #5 {
  %2 = alloca i64, align 8
  store i64 %0, ptr %2, align 8, !tbaa !31
  %3 = load i64, ptr %2, align 8, !tbaa !31
  %4 = call ptr @rb_check_typeddata(i64 noundef %3, ptr noundef @addrinfo_type)
  ret ptr %4
}

; Function Attrs: nounwind sspstrong uwtable
define internal ptr @get_addrinfo(i64 noundef %0) #0 {
  %2 = alloca i64, align 8
  %3 = alloca ptr, align 8
  store i64 %0, ptr %2, align 8, !tbaa !31
  call void @llvm.lifetime.start.p0(i64 8, ptr %3) #24
  %4 = load i64, ptr %2, align 8, !tbaa !31
  %5 = call ptr @check_addrinfo(i64 noundef %4)
  store ptr %5, ptr %3, align 8, !tbaa !26
  %6 = load ptr, ptr %3, align 8, !tbaa !26
  %7 = icmp ne ptr %6, null
  br i1 %7, label %10, label %8

8:                                                ; preds = %1
  %9 = load i64, ptr @rb_eTypeError, align 8, !tbaa !31
  call void (i64, ptr, ...) @rb_raise(i64 noundef %9, ptr noundef @.str.101) #27
  unreachable

10:                                               ; preds = %1
  %11 = load ptr, ptr %3, align 8, !tbaa !26
  call void @llvm.lifetime.end.p0(i64 8, ptr %3) #24
  ret ptr %11
}

; Function Attrs: nounwind sspstrong uwtable
define internal i64 @addrinfo_to_sockaddr(i64 noundef %0) #0 {
  %2 = alloca i64, align 8
  %3 = alloca ptr, align 8
  %4 = alloca i64, align 8
  store i64 %0, ptr %2, align 8, !tbaa !31
  call void @llvm.lifetime.start.p0(i64 8, ptr %3) #24
  %5 = load i64, ptr %2, align 8, !tbaa !31
  %6 = call ptr @get_addrinfo(i64 noundef %5)
  store ptr %6, ptr %3, align 8, !tbaa !26
  call void @llvm.lifetime.start.p0(i64 8, ptr %4) #24
  br i1 false, label %7, label %12

7:                                                ; preds = %1
  %8 = load ptr, ptr %3, align 8, !tbaa !26
  %9 = getelementptr inbounds nuw %struct.rb_addrinfo_t, ptr %8, i32 0, i32 5
  %10 = load i32, ptr %9, align 4, !tbaa !126
  %11 = call i1 @llvm.is.constant.i32(i32 %10)
  br label %12

12:                                               ; preds = %7, %1
  %13 = phi i1 [ false, %1 ], [ %11, %7 ]
  %14 = select i1 %13, ptr @rb_str_new_static, ptr @rb_str_new
  %15 = load ptr, ptr %3, align 8, !tbaa !26
  %16 = getelementptr inbounds nuw %struct.rb_addrinfo_t, ptr %15, i32 0, i32 6
  %17 = load ptr, ptr %3, align 8, !tbaa !26
  %18 = getelementptr inbounds nuw %struct.rb_addrinfo_t, ptr %17, i32 0, i32 5
  %19 = load i32, ptr %18, align 4, !tbaa !126
  %20 = zext i32 %19 to i64
  %21 = call i64 %14(ptr noundef %16, i64 noundef %20)
  store i64 %21, ptr %4, align 8, !tbaa !31
  %22 = load i64, ptr %4, align 8, !tbaa !31
  call void @llvm.lifetime.end.p0(i64 8, ptr %4) #24
  call void @llvm.lifetime.end.p0(i64 8, ptr %3) #24
  ret i64 %22
}

; Function Attrs: nounwind sspstrong uwtable
define i64 @rsock_sockaddr_string_value_with_addrinfo(ptr noundef %0, ptr noundef %1) #0 {
  %3 = alloca ptr, align 8
  %4 = alloca ptr, align 8
  %5 = alloca i64, align 8
  store ptr %0, ptr %3, align 8, !tbaa !24
  store ptr %1, ptr %4, align 8, !tbaa !24
  call void @llvm.lifetime.start.p0(i64 8, ptr %5) #24
  %6 = load ptr, ptr %3, align 8, !tbaa !24
  %7 = load volatile i64, ptr %6, align 8, !tbaa !31
  store i64 %7, ptr %5, align 8, !tbaa !31
  %8 = load ptr, ptr %4, align 8, !tbaa !24
  store i64 4, ptr %8, align 8, !tbaa !31
  %9 = load i64, ptr %5, align 8, !tbaa !31
  %10 = call i32 @rb_typeddata_is_kind_of(i64 noundef %9, ptr noundef @addrinfo_type)
  %11 = icmp ne i32 %10, 0
  br i1 %11, label %12, label %18

12:                                               ; preds = %2
  %13 = load i64, ptr %5, align 8, !tbaa !31
  %14 = call i64 @addrinfo_to_sockaddr(i64 noundef %13)
  %15 = load ptr, ptr %3, align 8, !tbaa !24
  store volatile i64 %14, ptr %15, align 8, !tbaa !31
  %16 = load i64, ptr %5, align 8, !tbaa !31
  %17 = load ptr, ptr %4, align 8, !tbaa !24
  store i64 %16, ptr %17, align 8, !tbaa !31
  br label %18

18:                                               ; preds = %12, %2
  %19 = load ptr, ptr %3, align 8, !tbaa !24
  %20 = call i64 @rb_string_value(ptr noundef %19)
  %21 = load ptr, ptr %3, align 8, !tbaa !24
  %22 = load volatile i64, ptr %21, align 8, !tbaa !31
  call void @llvm.lifetime.end.p0(i64 8, ptr %5) #24
  ret i64 %22
}