; Function Attrs: nounwind sspstrong uwtable
define i64 @rsock_sockaddr_string_value_with_addrinfo(ptr noundef %0, ptr noundef writeonly captures(none) initializes((0, 8)) %1) local_unnamed_addr #0 {
  %3 = load volatile i64, ptr %0, align 8, !tbaa !35
  store i64 4, ptr %1, align 8, !tbaa !35
  %4 = tail call i32 @rb_typeddata_is_kind_of(i64 noundef %3, ptr noundef nonnull @addrinfo_type) #21
  %.not = icmp eq i32 %4, 0
  br i1 %.not, label %14, label %5

5:                                                ; preds = %2
  %6 = tail call ptr @rb_check_typeddata(i64 noundef %3, ptr noundef nonnull @addrinfo_type) #21
  %.not.i.i = icmp eq ptr %6, null
  br i1 %.not.i.i, label %7, label %addrinfo_to_sockaddr.exit

7:                                                ; preds = %5
  %8 = load i64, ptr @rb_eTypeError, align 8, !tbaa !35
  tail call void (i64, ptr, ...) @rb_raise(i64 noundef %8, ptr noundef nonnull @.str.101) #23
  unreachable

addrinfo_to_sockaddr.exit:                        ; preds = %5
  %9 = getelementptr inbounds nuw i8, ptr %6, i64 32
  %10 = getelementptr inbounds nuw i8, ptr %6, i64 28
  %11 = load i32, ptr %10, align 4, !tbaa !118
  %12 = zext i32 %11 to i64
  %13 = tail call i64 @rb_str_new(ptr noundef nonnull %9, i64 noundef %12) #21
  store volatile i64 %13, ptr %0, align 8, !tbaa !35
  store i64 %3, ptr %1, align 8, !tbaa !35
  br label %14

14:                                               ; preds = %addrinfo_to_sockaddr.exit, %2
  %15 = tail call i64 @rb_string_value(ptr noundef nonnull %0) #21
  %16 = load volatile i64, ptr %0, align 8, !tbaa !35
  ret i64 %16
}